; Function Attrs: nounwind uwtable
define internal void @hwloc_libxml_look_done(ptr noundef captures(none) %0, i32 %1) #1 {
  %3 = getelementptr inbounds nuw i8, ptr %0, i64 80
  %4 = load ptr, ptr %3, align 8, !tbaa !14
  %.not.i = icmp eq ptr %4, null
  br i1 %.not.i, label %hwloc_libxml_free_buffers.exit, label %5

5:                                                ; preds = %2
  tail call void @xmlFreeDoc(ptr noundef nonnull %4) #11
  store ptr null, ptr %3, align 8, !tbaa !14
  br label %hwloc_libxml_free_buffers.exit

hwloc_libxml_free_buffers.exit:                   ; preds = %2, %5
  ret void
}